target datalayout = "e-m:e-p270:32:32-p271:32:32-p272:64:64-i64:64-i128:128-f80:128-n8:16:32:64-S128"
target triple = "x86_64-pc-linux-gnu"

%"class.clang::extractapi::RecordContext" = type { i32, ptr, ptr }

; Function Attrs: mustprogress nounwind uwtable
define linkonce_odr hidden noundef i32 @_ZNK5clang10extractapi13RecordContext7getKindEv(ptr noundef nonnull align 8 dereferenceable(24) %0) #0 comdat align 2 {
  %2 = alloca ptr, align 8
  store ptr %0, ptr %2, align 8
  %3 = load ptr, ptr %2, align 8
  %4 = getelementptr inbounds nuw %"class.clang::extractapi::RecordContext", ptr %3, i32 0, i32 0
  %5 = load i32, ptr %4, align 8
  ret i32 %5
}

; Function Attrs: mustprogress nounwind uwtable
define dso_local noundef ptr @_ZN5clang10extractapi9APIRecord21castFromRecordContextEPKNS0_13RecordContextE(ptr noundef %0) #0 align 2 {
  %2 = alloca ptr, align 8
  %3 = alloca ptr, align 8
  store ptr %0, ptr %3, align 8
  %4 = load ptr, ptr %3, align 8
  %5 = call noundef i32 @_ZNK5clang10extractapi13RecordContext7getKindEv(ptr noundef nonnull align 8 dereferenceable(24) %4)
  switch i32 %5, label %166 [
    i32 2, label %6
    i32 3, label %14
    i32 4, label %22
    i32 5, label %30
    i32 7, label %38
    i32 6, label %46
    i32 8, label %54
    i32 9, label %62
    i32 10, label %70
    i32 11, label %78
    i32 12, label %86
    i32 13, label %94
    i32 14, label %102
    i32 15, label %110
    i32 16, label %118
    i32 17, label %126
    i32 18, label %134
    i32 19, label %142
    i32 20, label %150
    i32 21, label %158
  ]

6:                                                ; preds = %1
  %7 = load ptr, ptr %3, align 8
  %8 = icmp eq ptr %7, null
  br i1 %8, label %11, label %9

9:                                                ; preds = %6
  %10 = getelementptr inbounds i8, ptr %7, i64 -368
  br label %12

11:                                               ; preds = %6
  br label %12

12:                                               ; preds = %11, %9
  %13 = phi ptr [ %10, %9 ], [ null, %11 ]
  store ptr %13, ptr %2, align 8
  br label %167

14:                                               ; preds = %1
  %15 = load ptr, ptr %3, align 8
  %16 = icmp eq ptr %15, null
  br i1 %16, label %19, label %17

17:                                               ; preds = %14
  %18 = getelementptr inbounds i8, ptr %15, i64 -368
  br label %20

19:                                               ; preds = %14
  br label %20

20:                                               ; preds = %19, %17
  %21 = phi ptr [ %18, %17 ], [ null, %19 ]
  store ptr %21, ptr %2, align 8
  br label %167

22:                                               ; preds = %1
  %23 = load ptr, ptr %3, align 8
  %24 = icmp eq ptr %23, null
  br i1 %24, label %27, label %25

25:                                               ; preds = %22
  %26 = getelementptr inbounds i8, ptr %23, i64 -368
  br label %28

27:                                               ; preds = %22
  br label %28

28:                                               ; preds = %27, %25
  %29 = phi ptr [ %26, %25 ], [ null, %27 ]
  store ptr %29, ptr %2, align 8
  br label %167

30:                                               ; preds = %1
  %31 = load ptr, ptr %3, align 8
  %32 = icmp eq ptr %31, null
  br i1 %32, label %35, label %33

33:                                               ; preds = %30
  %34 = getelementptr inbounds i8, ptr %31, i64 -368
  br label %36

35:                                               ; preds = %30
  br label %36

36:                                               ; preds = %35, %33
  %37 = phi ptr [ %34, %33 ], [ null, %35 ]
  store ptr %37, ptr %2, align 8
  br label %167

38:                                               ; preds = %1
  %39 = load ptr, ptr %3, align 8
  %40 = icmp eq ptr %39, null
  br i1 %40, label %43, label %41

41:                                               ; preds = %38
  %42 = getelementptr inbounds i8, ptr %39, i64 -368
  br label %44

43:                                               ; preds = %38
  br label %44

44:                                               ; preds = %43, %41
  %45 = phi ptr [ %42, %41 ], [ null, %43 ]
  store ptr %45, ptr %2, align 8
  br label %167

46:                                               ; preds = %1
  %47 = load ptr, ptr %3, align 8
  %48 = icmp eq ptr %47, null
  br i1 %48, label %51, label %49

49:                                               ; preds = %46
  %50 = getelementptr inbounds i8, ptr %47, i64 -368
  br label %52

51:                                               ; preds = %46
  br label %52

52:                                               ; preds = %51, %49
  %53 = phi ptr [ %50, %49 ], [ null, %51 ]
  store ptr %53, ptr %2, align 8
  br label %167

54:                                               ; preds = %1
  %55 = load ptr, ptr %3, align 8
  %56 = icmp eq ptr %55, null
  br i1 %56, label %59, label %57

57:                                               ; preds = %54
  %58 = getelementptr inbounds i8, ptr %55, i64 -368
  br label %60

59:                                               ; preds = %54
  br label %60

60:                                               ; preds = %59, %57
  %61 = phi ptr [ %58, %57 ], [ null, %59 ]
  store ptr %61, ptr %2, align 8
  br label %167

62:                                               ; preds = %1
  %63 = load ptr, ptr %3, align 8
  %64 = icmp eq ptr %63, null
  br i1 %64, label %67, label %65

65:                                               ; preds = %62
  %66 = getelementptr inbounds i8, ptr %63, i64 -368
  br label %68

67:                                               ; preds = %62
  br label %68

68:                                               ; preds = %67, %65
  %69 = phi ptr [ %66, %65 ], [ null, %67 ]
  store ptr %69, ptr %2, align 8
  br label %167

70:                                               ; preds = %1
  %71 = load ptr, ptr %3, align 8
  %72 = icmp eq ptr %71, null
  br i1 %72, label %75, label %73

73:                                               ; preds = %70
  %74 = getelementptr inbounds i8, ptr %71, i64 -368
  br label %76

75:                                               ; preds = %70
  br label %76

76:                                               ; preds = %75, %73
  %77 = phi ptr [ %74, %73 ], [ null, %75 ]
  store ptr %77, ptr %2, align 8
  br label %167

78:                                               ; preds = %1
  %79 = load ptr, ptr %3, align 8
  %80 = icmp eq ptr %79, null
  br i1 %80, label %83, label %81

81:                                               ; preds = %78
  %82 = getelementptr inbounds i8, ptr %79, i64 -368
  br label %84

83:                                               ; preds = %78
  br label %84

84:                                               ; preds = %83, %81
  %85 = phi ptr [ %82, %81 ], [ null, %83 ]
  store ptr %85, ptr %2, align 8
  br label %167

86:                                               ; preds = %1
  %87 = load ptr, ptr %3, align 8
  %88 = icmp eq ptr %87, null
  br i1 %88, label %91, label %89

89:                                               ; preds = %86
  %90 = getelementptr inbounds i8, ptr %87, i64 -368
  br label %92

91:                                               ; preds = %86
  br label %92

92:                                               ; preds = %91, %89
  %93 = phi ptr [ %90, %89 ], [ null, %91 ]
  store ptr %93, ptr %2, align 8
  br label %167

94:                                               ; preds = %1
  %95 = load ptr, ptr %3, align 8
  %96 = icmp eq ptr %95, null
  br i1 %96, label %99, label %97

97:                                               ; preds = %94
  %98 = getelementptr inbounds i8, ptr %95, i64 -368
  br label %100

99:                                               ; preds = %94
  br label %100

100:                                              ; preds = %99, %97
  %101 = phi ptr [ %98, %97 ], [ null, %99 ]
  store ptr %101, ptr %2, align 8
  br label %167

102:                                              ; preds = %1
  %103 = load ptr, ptr %3, align 8
  %104 = icmp eq ptr %103, null
  br i1 %104, label %107, label %105

105:                                              ; preds = %102
  %106 = getelementptr inbounds i8, ptr %103, i64 -368
  br label %108

107:                                              ; preds = %102
  br label %108

108:                                              ; preds = %107, %105
  %109 = phi ptr [ %106, %105 ], [ null, %107 ]
  store ptr %109, ptr %2, align 8
  br label %167

110:                                              ; preds = %1
  %111 = load ptr, ptr %3, align 8
  %112 = icmp eq ptr %111, null
  br i1 %112, label %115, label %113

113:                                              ; preds = %110
  %114 = getelementptr inbounds i8, ptr %111, i64 -368
  br label %116

115:                                              ; preds = %110
  br label %116

116:                                              ; preds = %115, %113
  %117 = phi ptr [ %114, %113 ], [ null, %115 ]
  store ptr %117, ptr %2, align 8
  br label %167

118:                                              ; preds = %1
  %119 = load ptr, ptr %3, align 8
  %120 = icmp eq ptr %119, null
  br i1 %120, label %123, label %121

121:                                              ; preds = %118
  %122 = getelementptr inbounds i8, ptr %119, i64 -368
  br label %124

123:                                              ; preds = %118
  br label %124

124:                                              ; preds = %123, %121
  %125 = phi ptr [ %122, %121 ], [ null, %123 ]
  store ptr %125, ptr %2, align 8
  br label %167

126:                                              ; preds = %1
  %127 = load ptr, ptr %3, align 8
  %128 = icmp eq ptr %127, null
  br i1 %128, label %131, label %129

129:                                              ; preds = %126
  %130 = getelementptr inbounds i8, ptr %127, i64 -368
  br label %132

131:                                              ; preds = %126
  br label %132

132:                                              ; preds = %131, %129
  %133 = phi ptr [ %130, %129 ], [ null, %131 ]
  store ptr %133, ptr %2, align 8
  br label %167

134:                                              ; preds = %1
  %135 = load ptr, ptr %3, align 8
  %136 = icmp eq ptr %135, null
  br i1 %136, label %139, label %137

137:                                              ; preds = %134
  %138 = getelementptr inbounds i8, ptr %135, i64 -368
  br label %140

139:                                              ; preds = %134
  br label %140

140:                                              ; preds = %139, %137
  %141 = phi ptr [ %138, %137 ], [ null, %139 ]
  store ptr %141, ptr %2, align 8
  br label %167

142:                                              ; preds = %1
  %143 = load ptr, ptr %3, align 8
  %144 = icmp eq ptr %143, null
  br i1 %144, label %147, label %145

145:                                              ; preds = %142
  %146 = getelementptr inbounds i8, ptr %143, i64 -368
  br label %148

147:                                              ; preds = %142
  br label %148

148:                                              ; preds = %147, %145
  %149 = phi ptr [ %146, %145 ], [ null, %147 ]
  store ptr %149, ptr %2, align 8
  br label %167

150:                                              ; preds = %1
  %151 = load ptr, ptr %3, align 8
  %152 = icmp eq ptr %151, null
  br i1 %152, label %155, label %153

153:                                              ; preds = %150
  %154 = getelementptr inbounds i8, ptr %151, i64 -368
  br label %156

155:                                              ; preds = %150
  br label %156

156:                                              ; preds = %155, %153
  %157 = phi ptr [ %154, %153 ], [ null, %155 ]
  store ptr %157, ptr %2, align 8
  br label %167

158:                                              ; preds = %1
  %159 = load ptr, ptr %3, align 8
  %160 = icmp eq ptr %159, null
  br i1 %160, label %163, label %161

161:                                              ; preds = %158
  %162 = getelementptr inbounds i8, ptr %159, i64 -368
  br label %164

163:                                              ; preds = %158
  br label %164

164:                                              ; preds = %163, %161
  %165 = phi ptr [ %162, %161 ], [ null, %163 ]
  store ptr %165, ptr %2, align 8
  br label %167

166:                                              ; preds = %1
  store ptr null, ptr %2, align 8
  br label %167

167:                                              ; preds = %166, %164, %156, %148, %140, %132, %124, %116, %108, %100, %92, %84, %76, %68, %60, %52, %44, %36, %28, %20, %12
  %168 = load ptr, ptr %2, align 8
  ret ptr %168
}