; Function Attrs: mustprogress nofree norecurse nosync nounwind willreturn memory(argmem: read) uwtable
define dso_local noundef ptr @_ZN5clang10extractapi9APIRecord21castFromRecordContextEPKNS0_13RecordContextE(ptr noundef readonly %0) local_unnamed_addr #2 align 2 {
  %2 = load i32, ptr %0, align 8
  switch i32 %2, label %43 [
    i32 2, label %3
    i32 3, label %5
    i32 4, label %7
    i32 5, label %9
    i32 7, label %11
    i32 6, label %13
    i32 8, label %15
    i32 9, label %17
    i32 10, label %19
    i32 11, label %21
    i32 12, label %23
    i32 13, label %25
    i32 14, label %27
    i32 15, label %29
    i32 16, label %31
    i32 17, label %33
    i32 18, label %35
    i32 19, label %37
    i32 20, label %39
    i32 21, label %41
  ]

3:                                                ; preds = %1
  %4 = getelementptr inbounds i8, ptr %0, i64 -368
  br label %43

5:                                                ; preds = %1
  %6 = getelementptr inbounds i8, ptr %0, i64 -368
  br label %43

7:                                                ; preds = %1
  %8 = getelementptr inbounds i8, ptr %0, i64 -368
  br label %43

9:                                                ; preds = %1
  %10 = getelementptr inbounds i8, ptr %0, i64 -368
  br label %43

11:                                               ; preds = %1
  %12 = getelementptr inbounds i8, ptr %0, i64 -368
  br label %43

13:                                               ; preds = %1
  %14 = getelementptr inbounds i8, ptr %0, i64 -368
  br label %43

15:                                               ; preds = %1
  %16 = getelementptr inbounds i8, ptr %0, i64 -368
  br label %43

17:                                               ; preds = %1
  %18 = getelementptr inbounds i8, ptr %0, i64 -368
  br label %43

19:                                               ; preds = %1
  %20 = getelementptr inbounds i8, ptr %0, i64 -368
  br label %43

21:                                               ; preds = %1
  %22 = getelementptr inbounds i8, ptr %0, i64 -368
  br label %43

23:                                               ; preds = %1
  %24 = getelementptr inbounds i8, ptr %0, i64 -368
  br label %43

25:                                               ; preds = %1
  %26 = getelementptr inbounds i8, ptr %0, i64 -368
  br label %43

27:                                               ; preds = %1
  %28 = getelementptr inbounds i8, ptr %0, i64 -368
  br label %43

29:                                               ; preds = %1
  %30 = getelementptr inbounds i8, ptr %0, i64 -368
  br label %43

31:                                               ; preds = %1
  %32 = getelementptr inbounds i8, ptr %0, i64 -368
  br label %43

33:                                               ; preds = %1
  %34 = getelementptr inbounds i8, ptr %0, i64 -368
  br label %43

35:                                               ; preds = %1
  %36 = getelementptr inbounds i8, ptr %0, i64 -368
  br label %43

37:                                               ; preds = %1
  %38 = getelementptr inbounds i8, ptr %0, i64 -368
  br label %43

39:                                               ; preds = %1
  %40 = getelementptr inbounds i8, ptr %0, i64 -368
  br label %43

41:                                               ; preds = %1
  %42 = getelementptr inbounds i8, ptr %0, i64 -368
  br label %43

43:                                               ; preds = %1, %41, %39, %37, %35, %33, %31, %29, %27, %25, %23, %21, %19, %17, %15, %13, %11, %9, %7, %5, %3
  %.0 = phi ptr [ %42, %41 ], [ %40, %39 ], [ %38, %37 ], [ %36, %35 ], [ %34, %33 ], [ %32, %31 ], [ %30, %29 ], [ %28, %27 ], [ %26, %25 ], [ %24, %23 ], [ %22, %21 ], [ %20, %19 ], [ %18, %17 ], [ %16, %15 ], [ %14, %13 ], [ %12, %11 ], [ %10, %9 ], [ %8, %7 ], [ %6, %5 ], [ %4, %3 ], [ null, %1 ]
  ret ptr %.0
}